; ModuleID = '7/1030.c'
source_filename = "7/1030.c"
target datalayout = "e-m:e-p270:32:32-p271:32:32-p272:64:64-i64:64-f80:128-n8:16:32:64-S128"
target triple = "x86_64-pc-linux-gnu"

@.str = private unnamed_addr constant [3 x i8] c"%s\00", align 1

; Function Attrs: noinline nounwind uwtable
define dso_local i32 @main() #0 {
  %1 = alloca i32, align 4
  %2 = alloca [257 x i8], align 16
  %3 = alloca [257 x i8], align 16
  %4 = alloca [257 x i8], align 16
  %5 = alloca [257 x i8], align 16
  %6 = alloca i32, align 4
  %7 = alloca i32, align 4
  %8 = alloca i32, align 4
  %9 = alloca i32, align 4
  %10 = alloca i32, align 4
  %11 = alloca i32, align 4
  %12 = alloca i32, align 4
  %13 = alloca i32, align 4
  store i32 0, i32* %1, align 4
  %14 = bitcast [257 x i8]* %5 to i8*
  call void @llvm.memset.p0i8.i64(i8* align 16 %14, i8 0, i64 257, i1 false)
  %15 = getelementptr inbounds [257 x i8], [257 x i8]* %2, i64 0, i64 0
  %16 = call i32 (i8*, ...) @__isoc99_scanf(i8* getelementptr inbounds ([3 x i8], [3 x i8]* @.str, i64 0, i64 0), i8* %15)
  %17 = getelementptr inbounds [257 x i8], [257 x i8]* %3, i64 0, i64 0
  %18 = call i32 (i8*, ...) @__isoc99_scanf(i8* getelementptr inbounds ([3 x i8], [3 x i8]* @.str, i64 0, i64 0), i8* %17)
  %19 = getelementptr inbounds [257 x i8], [257 x i8]* %4, i64 0, i64 0
  %20 = call i32 (i8*, ...) @__isoc99_scanf(i8* getelementptr inbounds ([3 x i8], [3 x i8]* @.str, i64 0, i64 0), i8* %19)
  store i32 0, i32* %7, align 4
  store i32 0, i32* %9, align 4
  %21 = getelementptr inbounds [257 x i8], [257 x i8]* %3, i64 0, i64 0
  %22 = call i64 @strlen(i8* %21) #4
  %23 = trunc i64 %22 to i32
  store i32 %23, i32* %8, align 4
  %24 = getelementptr inbounds [257 x i8], [257 x i8]* %4, i64 0, i64 0
  %25 = call i64 @strlen(i8* %24) #4
  %26 = trunc i64 %25 to i32
  store i32 %26, i32* %10, align 4
  %27 = getelementptr inbounds [257 x i8], [257 x i8]* %2, i64 0, i64 0
  %28 = call i64 @strlen(i8* %27) #4
  %29 = trunc i64 %28 to i32
  store i32 %29, i32* %11, align 4
  store i32 0, i32* %6, align 4
  br label %30

30:                                               ; preds = %55, %0
  %31 = load i32, i32* %6, align 4
  %32 = icmp slt i32 %31, 256
  br i1 %32, label %33, label %58

33:                                               ; preds = %30
  %34 = load i32, i32* %6, align 4
  %35 = sext i32 %34 to i64
  %36 = getelementptr inbounds [257 x i8], [257 x i8]* %2, i64 0, i64 %35
  %37 = load i8, i8* %36, align 1
  %38 = sext i8 %37 to i32
  %39 = load i32, i32* %7, align 4
  %40 = sext i32 %39 to i64
  %41 = getelementptr inbounds [257 x i8], [257 x i8]* %3, i64 0, i64 %40
  %42 = load i8, i8* %41, align 1
  %43 = sext i8 %42 to i32
  %44 = icmp eq i32 %38, %43
  br i1 %44, label %45, label %53

45:                                               ; preds = %33
  %46 = load i32, i32* %7, align 4
  %47 = add nsw i32 %46, 1
  store i32 %47, i32* %7, align 4
  %48 = load i32, i32* %7, align 4
  %49 = load i32, i32* %8, align 4
  %50 = icmp eq i32 %48, %49
  br i1 %50, label %51, label %52

51:                                               ; preds = %45
  br label %58

52:                                               ; preds = %45
  br label %54

53:                                               ; preds = %33
  store i32 0, i32* %7, align 4
  br label %54

54:                                               ; preds = %53, %52
  br label %55

55:                                               ; preds = %54
  %56 = load i32, i32* %6, align 4
  %57 = add nsw i32 %56, 1
  store i32 %57, i32* %6, align 4
  br label %30

58:                                               ; preds = %51, %30
  %59 = load i32, i32* %7, align 4
  %60 = load i32, i32* %8, align 4
  %61 = icmp eq i32 %59, %60
  br i1 %61, label %62, label %128

62:                                               ; preds = %58
  %63 = load i32, i32* %11, align 4
  %64 = load i32, i32* %8, align 4
  %65 = sub nsw i32 %63, %64
  %66 = load i32, i32* %10, align 4
  %67 = add nsw i32 %65, %66
  store i32 %67, i32* %12, align 4
  store i32 0, i32* %13, align 4
  br label %68

68:                                               ; preds = %122, %62
  %69 = load i32, i32* %13, align 4
  %70 = load i32, i32* %12, align 4
  %71 = icmp slt i32 %69, %70
  br i1 %71, label %72, label %125

72:                                               ; preds = %68
  %73 = load i32, i32* %13, align 4
  %74 = load i32, i32* %6, align 4
  %75 = load i32, i32* %7, align 4
  %76 = sub nsw i32 %74, %75
  %77 = icmp sle i32 %73, %76
  br i1 %77, label %78, label %86

78:                                               ; preds = %72
  %79 = load i32, i32* %13, align 4
  %80 = sext i32 %79 to i64
  %81 = getelementptr inbounds [257 x i8], [257 x i8]* %2, i64 0, i64 %80
  %82 = load i8, i8* %81, align 1
  %83 = load i32, i32* %13, align 4
  %84 = sext i32 %83 to i64
  %85 = getelementptr inbounds [257 x i8], [257 x i8]* %5, i64 0, i64 %84
  store i8 %82, i8* %85, align 1
  br label %122

86:                                               ; preds = %72
  %87 = load i32, i32* %13, align 4
  %88 = load i32, i32* %6, align 4
  %89 = load i32, i32* %7, align 4
  %90 = sub nsw i32 %88, %89
  %91 = icmp sgt i32 %87, %90
  br i1 %91, label %92, label %110

92:                                               ; preds = %86
  %93 = load i32, i32* %13, align 4
  %94 = load i32, i32* %6, align 4
  %95 = load i32, i32* %7, align 4
  %96 = sub nsw i32 %94, %95
  %97 = load i32, i32* %10, align 4
  %98 = add nsw i32 %96, %97
  %99 = icmp sle i32 %93, %98
  br i1 %99, label %100, label %110

100:                                              ; preds = %92
  %101 = load i32, i32* %9, align 4
  %102 = sext i32 %101 to i64
  %103 = getelementptr inbounds [257 x i8], [257 x i8]* %4, i64 0, i64 %102
  %104 = load i8, i8* %103, align 1
  %105 = load i32, i32* %13, align 4
  %106 = sext i32 %105 to i64
  %107 = getelementptr inbounds [257 x i8], [257 x i8]* %5, i64 0, i64 %106
  store i8 %104, i8* %107, align 1
  %108 = load i32, i32* %9, align 4
  %109 = add nsw i32 %108, 1
  store i32 %109, i32* %9, align 4
  br label %121

110:                                              ; preds = %92, %86
  %111 = load i32, i32* %6, align 4
  %112 = add nsw i32 %111, 1
  %113 = sext i32 %112 to i64
  %114 = getelementptr inbounds [257 x i8], [257 x i8]* %2, i64 0, i64 %113
  %115 = load i8, i8* %114, align 1
  %116 = load i32, i32* %13, align 4
  %117 = sext i32 %116 to i64
  %118 = getelementptr inbounds [257 x i8], [257 x i8]* %5, i64 0, i64 %117
  store i8 %115, i8* %118, align 1
  %119 = load i32, i32* %6, align 4
  %120 = add nsw i32 %119, 1
  store i32 %120, i32* %6, align 4
  br label %121

121:                                              ; preds = %110, %100
  br label %122

122:                                              ; preds = %121, %78
  %123 = load i32, i32* %13, align 4
  %124 = add nsw i32 %123, 1
  store i32 %124, i32* %13, align 4
  br label %68

125:                                              ; preds = %68
  %126 = getelementptr inbounds [257 x i8], [257 x i8]* %5, i64 0, i64 0
  %127 = call i32 (i8*, ...) @printf(i8* getelementptr inbounds ([3 x i8], [3 x i8]* @.str, i64 0, i64 0), i8* %126)
  br label %131

128:                                              ; preds = %58
  %129 = getelementptr inbounds [257 x i8], [257 x i8]* %2, i64 0, i64 0
  %130 = call i32 (i8*, ...) @printf(i8* getelementptr inbounds ([3 x i8], [3 x i8]* @.str, i64 0, i64 0), i8* %129)
  br label %131

131:                                              ; preds = %128, %125
  %132 = load i32, i32* %1, align 4
  ret i32 %132
}

; Function Attrs: argmemonly nounwind willreturn
declare void @llvm.memset.p0i8.i64(i8* nocapture writeonly, i8, i64, i1 immarg) #1

declare dso_local i32 @__isoc99_scanf(i8*, ...) #2

; Function Attrs: nounwind readonly
declare dso_local i64 @strlen(i8*) #3

declare dso_local i32 @printf(i8*, ...) #2


!llvm.module.flags = !{!0}
!llvm.ident = !{!1}

!0 = !{i32 1, !"wchar_size", i32 4}
!1 = !{!"clang version 10.0.0-4ubuntu1 "}
